; ModuleID = '20/1335.c'
source_filename = "20/1335.c"
target datalayout = "e-m:e-p270:32:32-p271:32:32-p272:64:64-i64:64-f80:128-n8:16:32:64-S128"
target triple = "x86_64-pc-linux-gnu"

@.str = private unnamed_addr constant [6 x i8] c"%s %s\00", align 1
@.str.1 = private unnamed_addr constant [3 x i8] c"%c\00", align 1
@.str.2 = private unnamed_addr constant [3 x i8] c"%s\00", align 1
@.str.3 = private unnamed_addr constant [2 x i8] c"\0A\00", align 1

; Function Attrs: noinline nounwind uwtable
define dso_local i32 @main() #0 {
  %1 = alloca i32, align 4
  %2 = alloca [11 x i8], align 1
  %3 = alloca [4 x i8], align 1
  %4 = alloca i8, align 1
  %5 = alloca i32, align 4
  %6 = alloca i32, align 4
  %7 = alloca i32, align 4
  store i32 0, i32* %1, align 4
  br label %8

8:                                                ; preds = %71, %0
  %9 = getelementptr inbounds [11 x i8], [11 x i8]* %2, i64 0, i64 0
  %10 = getelementptr inbounds [4 x i8], [4 x i8]* %3, i64 0, i64 0
  %11 = call i32 (i8*, ...) @__isoc99_scanf(i8* getelementptr inbounds ([6 x i8], [6 x i8]* @.str, i64 0, i64 0), i8* %9, i8* %10)
  %12 = icmp ne i32 %11, -1
  br i1 %12, label %13, label %73

13:                                               ; preds = %8
  store i32 0, i32* %6, align 4
  %14 = getelementptr inbounds [11 x i8], [11 x i8]* %2, i64 0, i64 0
  %15 = call i64 @strlen(i8* %14) #3
  %16 = trunc i64 %15 to i32
  store i32 %16, i32* %7, align 4
  %17 = getelementptr inbounds [11 x i8], [11 x i8]* %2, i64 0, i64 0
  %18 = load i8, i8* %17, align 1
  store i8 %18, i8* %4, align 1
  store i32 1, i32* %5, align 4
  br label %19

19:                                               ; preds = %39, %13
  %20 = load i32, i32* %5, align 4
  %21 = load i32, i32* %7, align 4
  %22 = icmp slt i32 %20, %21
  br i1 %22, label %23, label %42

23:                                               ; preds = %19
  %24 = load i32, i32* %5, align 4
  %25 = sext i32 %24 to i64
  %26 = getelementptr inbounds [11 x i8], [11 x i8]* %2, i64 0, i64 %25
  %27 = load i8, i8* %26, align 1
  %28 = sext i8 %27 to i32
  %29 = load i8, i8* %4, align 1
  %30 = sext i8 %29 to i32
  %31 = icmp sgt i32 %28, %30
  br i1 %31, label %32, label %38

32:                                               ; preds = %23
  %33 = load i32, i32* %5, align 4
  %34 = sext i32 %33 to i64
  %35 = getelementptr inbounds [11 x i8], [11 x i8]* %2, i64 0, i64 %34
  %36 = load i8, i8* %35, align 1
  store i8 %36, i8* %4, align 1
  %37 = load i32, i32* %5, align 4
  store i32 %37, i32* %6, align 4
  br label %38

38:                                               ; preds = %32, %23
  br label %39

39:                                               ; preds = %38
  %40 = load i32, i32* %5, align 4
  %41 = add nsw i32 %40, 1
  store i32 %41, i32* %5, align 4
  br label %19

42:                                               ; preds = %19
  store i32 0, i32* %5, align 4
  br label %43

43:                                               ; preds = %68, %42
  %44 = load i32, i32* %5, align 4
  %45 = load i32, i32* %7, align 4
  %46 = icmp slt i32 %44, %45
  br i1 %46, label %47, label %71

47:                                               ; preds = %43
  %48 = load i32, i32* %5, align 4
  %49 = load i32, i32* %6, align 4
  %50 = icmp eq i32 %48, %49
  br i1 %50, label %51, label %60

51:                                               ; preds = %47
  %52 = load i32, i32* %5, align 4
  %53 = sext i32 %52 to i64
  %54 = getelementptr inbounds [11 x i8], [11 x i8]* %2, i64 0, i64 %53
  %55 = load i8, i8* %54, align 1
  %56 = sext i8 %55 to i32
  %57 = call i32 (i8*, ...) @printf(i8* getelementptr inbounds ([3 x i8], [3 x i8]* @.str.1, i64 0, i64 0), i32 %56)
  %58 = getelementptr inbounds [4 x i8], [4 x i8]* %3, i64 0, i64 0
  %59 = call i32 (i8*, ...) @printf(i8* getelementptr inbounds ([3 x i8], [3 x i8]* @.str.2, i64 0, i64 0), i8* %58)
  br label %67

60:                                               ; preds = %47
  %61 = load i32, i32* %5, align 4
  %62 = sext i32 %61 to i64
  %63 = getelementptr inbounds [11 x i8], [11 x i8]* %2, i64 0, i64 %62
  %64 = load i8, i8* %63, align 1
  %65 = sext i8 %64 to i32
  %66 = call i32 (i8*, ...) @printf(i8* getelementptr inbounds ([3 x i8], [3 x i8]* @.str.1, i64 0, i64 0), i32 %65)
  br label %67

67:                                               ; preds = %60, %51
  br label %68

68:                                               ; preds = %67
  %69 = load i32, i32* %5, align 4
  %70 = add nsw i32 %69, 1
  store i32 %70, i32* %5, align 4
  br label %43

71:                                               ; preds = %43
  %72 = call i32 (i8*, ...) @printf(i8* getelementptr inbounds ([2 x i8], [2 x i8]* @.str.3, i64 0, i64 0))
  br label %8

73:                                               ; preds = %8
  ret i32 0
}

declare dso_local i32 @__isoc99_scanf(i8*, ...) #1

; Function Attrs: nounwind readonly
declare dso_local i64 @strlen(i8*) #2

declare dso_local i32 @printf(i8*, ...) #1


!llvm.module.flags = !{!0}
!llvm.ident = !{!1}

!0 = !{i32 1, !"wchar_size", i32 4}
!1 = !{!"clang version 10.0.0-4ubuntu1 "}
